target datalayout = "e-m:e-p270:32:32-p271:32:32-p272:64:64-i64:64-i128:128-f80:128-n8:16:32:64-S128"
target triple = "x86_64-pc-linux-gnu"

%struct.ident_t = type { i32, i32, i32, i32, ptr }
%struct.Qureg = type { i32, i32, i32, i64, i64, i32, i32, %struct.ComplexArray, %struct.ComplexArray, %struct.ComplexArray, ptr, ptr, ptr, ptr, ptr, ptr }
%struct.ComplexArray = type { ptr, ptr }
%struct.ComplexMatrix2 = type { [2 x [2 x double]], [2 x [2 x double]] }

@3 = private unnamed_addr constant %struct.ident_t { i32 0, i32 2, i32 0, i32 22, ptr @0 }, align 8

; Function Attrs: nounwind uwtable
define void @statevec_controlledUnitaryLocal(ptr noundef byval(%struct.Qureg) align 8 %0, i32 noundef %1, i32 noundef %2, ptr noundef byval(%struct.ComplexMatrix2) align 8 %3) #0 {
  %5 = alloca i32, align 4
  %6 = alloca i32, align 4
  %7 = alloca i64, align 8
  %8 = alloca i64, align 8
  %9 = alloca i64, align 8
  %10 = alloca i64, align 8
  %11 = alloca i64, align 8
  %12 = alloca ptr, align 8
  %13 = alloca ptr, align 8
  store i32 %1, ptr %5, align 4, !tbaa !8
  store i32 %2, ptr %6, align 4, !tbaa !8
  call void @llvm.lifetime.start.p0(i64 8, ptr %7) #3
  call void @llvm.lifetime.start.p0(i64 8, ptr %8) #3
  call void @llvm.lifetime.start.p0(i64 8, ptr %9) #3
  %14 = getelementptr inbounds nuw %struct.Qureg, ptr %0, i32 0, i32 3
  %15 = load i64, ptr %14, align 8, !tbaa !12
  %16 = ashr i64 %15, 1
  store i64 %16, ptr %9, align 8, !tbaa !4
  call void @llvm.lifetime.start.p0(i64 8, ptr %10) #3
  %17 = getelementptr inbounds nuw %struct.Qureg, ptr %0, i32 0, i32 3
  %18 = load i64, ptr %17, align 8, !tbaa !12
  store i64 %18, ptr %10, align 8, !tbaa !4
  call void @llvm.lifetime.start.p0(i64 8, ptr %11) #3
  %19 = getelementptr inbounds nuw %struct.Qureg, ptr %0, i32 0, i32 5
  %20 = load i32, ptr %19, align 8, !tbaa !26
  %21 = sext i32 %20 to i64
  store i64 %21, ptr %11, align 8, !tbaa !4
  %22 = load i32, ptr %6, align 4, !tbaa !8
  %23 = zext i32 %22 to i64
  %24 = shl i64 1, %23
  store i64 %24, ptr %8, align 8, !tbaa !4
  %25 = load i64, ptr %8, align 8, !tbaa !4
  %26 = mul nsw i64 2, %25
  store i64 %26, ptr %7, align 8, !tbaa !4
  call void @llvm.lifetime.start.p0(i64 8, ptr %12) #3
  %27 = getelementptr inbounds nuw %struct.Qureg, ptr %0, i32 0, i32 7
  %28 = getelementptr inbounds nuw %struct.ComplexArray, ptr %27, i32 0, i32 0
  %29 = load ptr, ptr %28, align 8, !tbaa !27
  store ptr %29, ptr %12, align 8, !tbaa !25
  call void @llvm.lifetime.start.p0(i64 8, ptr %13) #3
  %30 = getelementptr inbounds nuw %struct.Qureg, ptr %0, i32 0, i32 7
  %31 = getelementptr inbounds nuw %struct.ComplexArray, ptr %30, i32 0, i32 1
  %32 = load ptr, ptr %31, align 8, !tbaa !28
  store ptr %32, ptr %13, align 8, !tbaa !25
  call void (ptr, i32, ptr, ...) @__kmpc_fork_call(ptr @3, i32 9, ptr @statevec_controlledUnitaryLocal.omp_outlined, ptr %9, ptr %8, ptr %7, ptr %5, ptr %11, ptr %10, ptr %12, ptr %13, ptr %3)
  call void @llvm.lifetime.end.p0(i64 8, ptr %13) #3
  call void @llvm.lifetime.end.p0(i64 8, ptr %12) #3
  call void @llvm.lifetime.end.p0(i64 8, ptr %11) #3
  call void @llvm.lifetime.end.p0(i64 8, ptr %10) #3
  call void @llvm.lifetime.end.p0(i64 8, ptr %9) #3
  call void @llvm.lifetime.end.p0(i64 8, ptr %8) #3
  call void @llvm.lifetime.end.p0(i64 8, ptr %7) #3
  ret void
}