; Function Attrs: nounwind uwtable
define void @statevec_controlledUnitaryLocal(ptr noundef readonly byval(%struct.Qureg) align 8 captures(none) %0, i32 noundef %1, i32 noundef %2, ptr noundef byval(%struct.ComplexMatrix2) align 8 %3) local_unnamed_addr #1 {
  %5 = alloca i32, align 4
  %6 = alloca i64, align 8
  %7 = alloca i64, align 8
  %8 = alloca i64, align 8
  %9 = alloca i64, align 8
  %10 = alloca i64, align 8
  %11 = alloca ptr, align 8
  %12 = alloca ptr, align 8
  store i32 %1, ptr %5, align 4, !tbaa !18
  call void @llvm.lifetime.start.p0(i64 8, ptr nonnull %6) #4
  call void @llvm.lifetime.start.p0(i64 8, ptr nonnull %7) #4
  call void @llvm.lifetime.start.p0(i64 8, ptr nonnull %8) #4
  %13 = getelementptr inbounds nuw i8, ptr %0, i64 16
  %14 = load i64, ptr %13, align 8, !tbaa !8
  %15 = ashr i64 %14, 1
  store i64 %15, ptr %8, align 8, !tbaa !16
  call void @llvm.lifetime.start.p0(i64 8, ptr nonnull %9) #4
  store i64 %14, ptr %9, align 8, !tbaa !16
  call void @llvm.lifetime.start.p0(i64 8, ptr nonnull %10) #4
  %16 = getelementptr inbounds nuw i8, ptr %0, i64 32
  %17 = load i32, ptr %16, align 8, !tbaa !19
  %18 = sext i32 %17 to i64
  store i64 %18, ptr %10, align 8, !tbaa !16
  %19 = zext nneg i32 %2 to i64
  %20 = shl nuw i64 1, %19
  store i64 %20, ptr %7, align 8, !tbaa !16
  %21 = shl i64 2, %19
  store i64 %21, ptr %6, align 8, !tbaa !16
  call void @llvm.lifetime.start.p0(i64 8, ptr nonnull %11) #4
  %22 = getelementptr inbounds nuw i8, ptr %0, i64 40
  %23 = load ptr, ptr %22, align 8, !tbaa !22
  store ptr %23, ptr %11, align 8, !tbaa !26
  call void @llvm.lifetime.start.p0(i64 8, ptr nonnull %12) #4
  %24 = getelementptr inbounds nuw i8, ptr %0, i64 48
  %25 = load ptr, ptr %24, align 8, !tbaa !24
  store ptr %25, ptr %12, align 8, !tbaa !26
  call void (ptr, i32, ptr, ...) @__kmpc_fork_call(ptr nonnull @3, i32 9, ptr nonnull @statevec_controlledUnitaryLocal.omp_outlined, ptr nonnull %8, ptr nonnull %7, ptr nonnull %6, ptr nonnull %5, ptr nonnull %10, ptr nonnull %9, ptr nonnull %11, ptr nonnull %12, ptr nonnull %3)
  call void @llvm.lifetime.end.p0(i64 8, ptr nonnull %12) #4
  call void @llvm.lifetime.end.p0(i64 8, ptr nonnull %11) #4
  call void @llvm.lifetime.end.p0(i64 8, ptr nonnull %10) #4
  call void @llvm.lifetime.end.p0(i64 8, ptr nonnull %9) #4
  call void @llvm.lifetime.end.p0(i64 8, ptr nonnull %8) #4
  call void @llvm.lifetime.end.p0(i64 8, ptr nonnull %7) #4
  call void @llvm.lifetime.end.p0(i64 8, ptr nonnull %6) #4
  ret void
}